; Function Attrs: nounwind uwtable
define ptr @l_Lean_PersistentArray_anyM___at___private_Lean_Meta_CongrTheorems_0__Lean_Meta_mkCast_go___spec__5___boxed(ptr noundef %0, ptr noundef %1) local_unnamed_addr #1 {
  %3 = getelementptr inbounds nuw i8, ptr %1, i64 8
  %4 = load ptr, ptr %3, align 8, !tbaa !10
  %5 = tail call zeroext i8 @l_Lean_PersistentArray_anyMAux___at___private_Lean_Meta_CongrTheorems_0__Lean_Meta_mkCast_go___spec__6(ptr noundef %0, ptr noundef %4)
  %6 = icmp eq i8 %5, 0
  br i1 %6, label %lean_nat_lt.exit.i, label %l_Lean_PersistentArray_anyM___at___private_Lean_Meta_CongrTheorems_0__Lean_Meta_mkCast_go___spec__5.exit

lean_nat_lt.exit.i:                               ; preds = %2
  %7 = getelementptr inbounds nuw i8, ptr %1, i64 16
  %8 = load ptr, ptr %7, align 8, !tbaa !10
  %9 = getelementptr i8, ptr %8, i64 8
  %.val.i = load i64, ptr %9, align 8, !tbaa !16
  %.mask.i = and i64 %.val.i, 9223372036854775807
  %.not.i8 = icmp eq i64 %.mask.i, 0
  br i1 %.not.i8, label %l_Lean_PersistentArray_anyM___at___private_Lean_Meta_CongrTheorems_0__Lean_Meta_mkCast_go___spec__5.exit, label %lean_dec.exit.i

lean_dec.exit.i:                                  ; preds = %lean_nat_lt.exit.i
  %10 = tail call zeroext i8 @l_Array_anyMUnsafe_any___at___private_Lean_Meta_CongrTheorems_0__Lean_Meta_mkCast_go___spec__9(ptr noundef %0, ptr noundef nonnull %8, i64 noundef 0, i64 noundef %.mask.i)
  %11 = shl nuw nsw i8 %10, 1
  %12 = or disjoint i8 %11, 1
  %13 = zext nneg i8 %12 to i64
  br label %l_Lean_PersistentArray_anyM___at___private_Lean_Meta_CongrTheorems_0__Lean_Meta_mkCast_go___spec__5.exit

l_Lean_PersistentArray_anyM___at___private_Lean_Meta_CongrTheorems_0__Lean_Meta_mkCast_go___spec__5.exit: ; preds = %2, %lean_nat_lt.exit.i, %lean_dec.exit.i
  %.1.i = phi i64 [ %13, %lean_dec.exit.i ], [ 3, %2 ], [ 1, %lean_nat_lt.exit.i ]
  %14 = ptrtoint ptr %1 to i64
  %15 = and i64 %14, 1
  %.not = icmp eq i64 %15, 0
  br i1 %.not, label %16, label %lean_dec.exit5

16:                                               ; preds = %l_Lean_PersistentArray_anyM___at___private_Lean_Meta_CongrTheorems_0__Lean_Meta_mkCast_go___spec__5.exit
  %17 = load i32, ptr %1, align 4, !tbaa !4
  %18 = icmp sgt i32 %17, 1
  br i1 %18, label %19, label %21, !prof !9

19:                                               ; preds = %16
  %20 = add nsw i32 %17, -1
  store i32 %20, ptr %1, align 4, !tbaa !4
  br label %lean_dec.exit5

21:                                               ; preds = %16
  %.not.i = icmp eq i32 %17, 0
  br i1 %.not.i, label %lean_dec.exit5, label %22

22:                                               ; preds = %21
  tail call void @lean_dec_ref_cold(ptr noundef nonnull %1) #7
  br label %lean_dec.exit5

lean_dec.exit5:                                   ; preds = %22, %21, %19, %l_Lean_PersistentArray_anyM___at___private_Lean_Meta_CongrTheorems_0__Lean_Meta_mkCast_go___spec__5.exit
  %23 = ptrtoint ptr %0 to i64
  %24 = and i64 %23, 1
  %.not9 = icmp eq i64 %24, 0
  br i1 %.not9, label %25, label %lean_dec.exit

25:                                               ; preds = %lean_dec.exit5
  %26 = load i32, ptr %0, align 4, !tbaa !4
  %27 = icmp sgt i32 %26, 1
  br i1 %27, label %28, label %30, !prof !9

28:                                               ; preds = %25
  %29 = add nsw i32 %26, -1
  store i32 %29, ptr %0, align 4, !tbaa !4
  br label %lean_dec.exit

30:                                               ; preds = %25
  %.not.i6 = icmp eq i32 %26, 0
  br i1 %.not.i6, label %lean_dec.exit, label %31

31:                                               ; preds = %30
  tail call void @lean_dec_ref_cold(ptr noundef nonnull %0) #7
  br label %lean_dec.exit

lean_dec.exit:                                    ; preds = %31, %30, %28, %lean_dec.exit5
  %32 = inttoptr i64 %.1.i to ptr
  ret ptr %32
}